; Function Attrs: mustprogress uwtable
define void @_ZN3gmx14TextOutputFileC2ERKNSt10filesystem7__cxx114pathE(ptr noundef nonnull writeonly align 8 captures(none) dereferenceable(16) initializes((0, 8)) %0, ptr noundef nonnull align 8 dereferenceable(40) %1) unnamed_addr #2 align 2 personality ptr @__gxx_personality_v0 {
  store ptr getelementptr inbounds nuw inrange(-16, 32) (i8, ptr @_ZTVN3gmx14TextOutputFileE, i64 16), ptr %0, align 8, !tbaa !16
  %3 = tail call noalias noundef nonnull dereferenceable(16) ptr @_Znwm(i64 noundef 16) #26
  invoke void @_ZN3gmx8internal14FileStreamImplC2ERKNSt10filesystem7__cxx114pathEPKc(ptr noundef nonnull align 8 dereferenceable(9) %3, ptr noundef nonnull align 8 dereferenceable(40) %1, ptr noundef nonnull @.str.15)
          to label %4 unwind label %6

4:                                                ; preds = %2
  %5 = getelementptr inbounds nuw i8, ptr %0, i64 8
  store ptr %3, ptr %5, align 8, !tbaa !9
  ret void

6:                                                ; preds = %2
  %7 = landingpad { ptr, i32 }
          cleanup
  tail call void @_ZdlPvm(ptr noundef nonnull %3, i64 noundef 16) #21
  resume { ptr, i32 } %7
}